; Function Attrs: mustprogress nounwind uwtable
define hidden void @_ZN20MallocMemorySnapshot7copy_toEPS_(ptr noundef nonnull readonly align 8 dereferenceable(1824) %0, ptr noundef %1) local_unnamed_addr #0 align 2 {
  %3 = alloca %class.ThreadCritical, align 1
  call void @_ZN14ThreadCriticalC1Ev(ptr noundef nonnull align 1 dereferenceable(1) %3) #10
  %4 = getelementptr inbounds i8, ptr %0, i64 1792
  %5 = getelementptr inbounds i8, ptr %1, i64 1792
  call void @llvm.memcpy.p0.p0.i64(ptr nonnull align 8 %5, ptr nonnull align 8 %4, i64 32, i1 true)
  br label %6

6:                                                ; preds = %2, %6
  %indvars.iv = phi i64 [ 0, %2 ], [ %indvars.iv.next, %6 ]
  %.01518 = phi i64 [ 0, %2 ], [ %13, %6 ]
  %.01617 = phi i64 [ 0, %2 ], [ %11, %6 ]
  %7 = getelementptr inbounds [28 x %class.MallocMemory], ptr %0, i64 0, i64 %indvars.iv
  %8 = getelementptr inbounds [28 x %class.MallocMemory], ptr %1, i64 0, i64 %indvars.iv
  call void @llvm.memcpy.p0.p0.i64(ptr align 8 %8, ptr nonnull align 8 %7, i64 64, i1 true)
  %9 = getelementptr inbounds i8, ptr %8, i64 8
  %10 = load volatile i64, ptr %9, align 8
  %11 = add i64 %10, %.01617
  %12 = load volatile i64, ptr %8, align 8
  %13 = add i64 %12, %.01518
  %indvars.iv.next = add nuw nsw i64 %indvars.iv, 1
  %exitcond.not = icmp eq i64 %indvars.iv.next, 28
  br i1 %exitcond.not, label %14, label %6, !llvm.loop !9

14:                                               ; preds = %6
  %15 = getelementptr inbounds i8, ptr %1, i64 1800
  store volatile i64 %11, ptr %15, align 8
  store volatile i64 %13, ptr %5, align 8
  %16 = getelementptr inbounds i8, ptr %1, i64 1816
  %17 = load volatile i64, ptr %16, align 8
  br label %18

18:                                               ; preds = %20, %14
  %.0.i.i = phi i64 [ %17, %14 ], [ %21, %20 ]
  %19 = icmp ult i64 %.0.i.i, %11
  br i1 %19, label %20, label %_ZN13MemoryCounter18set_size_and_countEmm.exit

20:                                               ; preds = %18
  %21 = call noundef i64 asm sideeffect "lock cmpxchgq $1,($3)", "={ax},r,{ax},r,~{cc},~{memory},~{dirflag},~{fpsr},~{flags}"(i64 %11, i64 %.0.i.i, ptr nonnull %16) #10, !srcloc !6
  %22 = icmp eq i64 %21, %.0.i.i
  br i1 %22, label %23, label %18, !llvm.loop !7

23:                                               ; preds = %20
  %24 = getelementptr inbounds i8, ptr %1, i64 1808
  store volatile i64 %13, ptr %24, align 8
  br label %_ZN13MemoryCounter18set_size_and_countEmm.exit

_ZN13MemoryCounter18set_size_and_countEmm.exit:   ; preds = %18, %23
  call void @_ZN14ThreadCriticalD1Ev(ptr noundef nonnull align 1 dereferenceable(1) %3) #10
  ret void
}